; Function Attrs: nounwind sspstrong uwtable
define internal fastcc void @qobject_unref_impl(ptr noundef %obj) unnamed_addr #0 {
entry:
  %tobool.not = icmp eq ptr %obj, null
  br i1 %tobool.not, label %if.end6, label %lor.lhs.false

lor.lhs.false:                                    ; preds = %entry
  %refcnt = getelementptr inbounds nuw i8, ptr %obj, i64 8
  %0 = load i64, ptr %refcnt, align 8
  %tobool1.not = icmp eq i64 %0, 0
  br i1 %tobool1.not, label %if.else, label %land.lhs.true

if.else:                                          ; preds = %lor.lhs.false
  tail call void @__assert_fail(ptr noundef nonnull @.str.29, ptr noundef nonnull @.str.23, i32 noundef 97, ptr noundef nonnull @__PRETTY_FUNCTION__.qobject_unref_impl) #6
  unreachable

land.lhs.true:                                    ; preds = %lor.lhs.false
  %dec = add i64 %0, -1
  store i64 %dec, ptr %refcnt, align 8
  %cmp = icmp eq i64 %dec, 0
  br i1 %cmp, label %if.then5, label %if.end6

if.then5:                                         ; preds = %land.lhs.true
  tail call void @qobject_destroy(ptr noundef nonnull %obj) #5
  br label %if.end6

if.end6:                                          ; preds = %entry, %if.then5, %land.lhs.true
  ret void
}